target datalayout = "e-m:e-p270:32:32-p271:32:32-p272:64:64-i64:64-i128:128-f80:128-n8:16:32:64-S128"
target triple = "x86_64-pc-linux-gnu"

%struct.expert_field = type { i32, i32 }

@hf_pn_io_slot_nr = internal global i32 0, align 4
@hf_pn_io_subslot_nr = internal global i32 0, align 4
@hf_pn_io_tsn_expected_neighbor_block_number_of_entries = internal global i32 0, align 4
@hf_pn_io_line_delay = internal global i32 0, align 4
@hf_pn_io_line_delay_value = internal global i32 0, align 4
@hf_pn_io_cable_delay_value = internal global i32 0, align 4
@hf_pn_io_line_delay_format_indicator = internal global i32 0, align 4
@hf_pn_io_number_of_peers = internal global i32 0, align 4
@hf_pn_io_length_peer_port_name = internal global i32 0, align 4
@hf_pn_io_peer_port_name = internal global i32 0, align 4
@hf_pn_io_length_peer_station_name = internal global i32 0, align 4
@hf_pn_io_peer_station_name = internal global i32 0, align 4
@ett_pn_io_line_delay = internal global i32 0, align 4
@ei_pn_io_block_version = internal global %struct.expert_field zeroinitializer, align 4
@.str.1317 = private unnamed_addr constant [41 x i8] c"Block version %u.%u not implemented yet!\00", align 1

; Function Attrs: nounwind uwtable
define internal i32 @dissect_Line_Delay(ptr noundef %0, i32 noundef %1, ptr noundef %2, ptr noundef %3, ptr noundef %4, ptr noundef %5) #0 {
  %7 = alloca ptr, align 8
  %8 = alloca i32, align 4
  %9 = alloca ptr, align 8
  %10 = alloca ptr, align 8
  %11 = alloca ptr, align 8
  %12 = alloca ptr, align 8
  %13 = alloca ptr, align 8
  %14 = alloca ptr, align 8
  %15 = alloca i32, align 4
  %16 = alloca i8, align 1
  store ptr %0, ptr %7, align 8
  store i32 %1, ptr %8, align 4
  store ptr %2, ptr %9, align 8
  store ptr %3, ptr %10, align 8
  store ptr %4, ptr %11, align 8
  store ptr %5, ptr %12, align 8
  %17 = load ptr, ptr %10, align 8
  %18 = load i32, ptr @hf_pn_io_line_delay, align 4
  %19 = load ptr, ptr %7, align 8
  %20 = load i32, ptr %8, align 4
  %21 = call ptr @proto_tree_add_item(ptr noundef %17, i32 noundef %18, ptr noundef %19, i32 noundef %20, i32 noundef 4, i32 noundef 0)
  store ptr %21, ptr %13, align 8
  %22 = load ptr, ptr %13, align 8
  %23 = load i32, ptr @ett_pn_io_line_delay, align 4
  %24 = call ptr @proto_item_add_subtree(ptr noundef %22, i32 noundef %23)
  store ptr %24, ptr %14, align 8
  %25 = load ptr, ptr %7, align 8
  %26 = load i32, ptr %8, align 4
  %27 = load ptr, ptr %9, align 8
  %28 = load ptr, ptr %14, align 8
  %29 = load ptr, ptr %11, align 8
  %30 = load i32, ptr @hf_pn_io_line_delay_format_indicator, align 4
  %31 = call i32 @dissect_dcerpc_uint32(ptr noundef %25, i32 noundef %26, ptr noundef %27, ptr noundef %28, ptr noundef %29, i32 noundef %30, ptr noundef %15)
  %32 = load i32, ptr %15, align 4
  %33 = lshr i32 %32, 31
  %34 = and i32 %33, 1
  %35 = trunc i32 %34 to i8
  store i8 %35, ptr %16, align 1
  %36 = load i8, ptr %16, align 1
  %37 = icmp ne i8 %36, 0
  br i1 %37, label %38, label %47

38:                                               ; preds = %6
  %39 = load ptr, ptr %7, align 8
  %40 = load i32, ptr %8, align 4
  %41 = load ptr, ptr %9, align 8
  %42 = load ptr, ptr %14, align 8
  %43 = load ptr, ptr %11, align 8
  %44 = load i32, ptr @hf_pn_io_cable_delay_value, align 4
  %45 = load ptr, ptr %12, align 8
  %46 = call i32 @dissect_dcerpc_uint32(ptr noundef %39, i32 noundef %40, ptr noundef %41, ptr noundef %42, ptr noundef %43, i32 noundef %44, ptr noundef %45)
  store i32 %46, ptr %8, align 4
  br label %56

47:                                               ; preds = %6
  %48 = load ptr, ptr %7, align 8
  %49 = load i32, ptr %8, align 4
  %50 = load ptr, ptr %9, align 8
  %51 = load ptr, ptr %14, align 8
  %52 = load ptr, ptr %11, align 8
  %53 = load i32, ptr @hf_pn_io_line_delay_value, align 4
  %54 = load ptr, ptr %12, align 8
  %55 = call i32 @dissect_dcerpc_uint32(ptr noundef %48, i32 noundef %49, ptr noundef %50, ptr noundef %51, ptr noundef %52, i32 noundef %53, ptr noundef %54)
  store i32 %55, ptr %8, align 4
  br label %56

56:                                               ; preds = %47, %38
  %57 = load i32, ptr %8, align 4
  ret i32 %57
}

; Function Attrs: nounwind uwtable
define internal i32 @dissect_TSNExpectedNeighbor_block(ptr noundef %0, i32 noundef %1, ptr noundef %2, ptr noundef %3, ptr noundef %4, ptr noundef %5, i8 noundef zeroext %6, i8 noundef zeroext %7) #0 {
  %9 = alloca i32, align 4
  %10 = alloca ptr, align 8
  %11 = alloca i32, align 4
  %12 = alloca ptr, align 8
  %13 = alloca ptr, align 8
  %14 = alloca ptr, align 8
  %15 = alloca ptr, align 8
  %16 = alloca i8, align 1
  %17 = alloca i8, align 1
  %18 = alloca i8, align 1
  %19 = alloca i8, align 1
  %20 = alloca i8, align 1
  %21 = alloca i8, align 1
  %22 = alloca i16, align 2
  %23 = alloca i16, align 2
  %24 = alloca i16, align 2
  %25 = alloca i32, align 4
  store ptr %0, ptr %10, align 8
  store i32 %1, ptr %11, align 4
  store ptr %2, ptr %12, align 8
  store ptr %3, ptr %13, align 8
  store ptr %4, ptr %14, align 8
  store ptr %5, ptr %15, align 8
  store i8 %6, ptr %16, align 1
  store i8 %7, ptr %17, align 1
  %26 = load i8, ptr %16, align 1
  %27 = zext i8 %26 to i32
  %28 = icmp ne i32 %27, 1
  br i1 %28, label %37, label %29

29:                                               ; preds = %8
  %30 = load i8, ptr %17, align 1
  %31 = zext i8 %30 to i32
  %32 = icmp ne i32 %31, 0
  br i1 %32, label %33, label %46

33:                                               ; preds = %29
  %34 = load i8, ptr %17, align 1
  %35 = zext i8 %34 to i32
  %36 = icmp ne i32 %35, 1
  br i1 %36, label %37, label %46

37:                                               ; preds = %33, %8
  %38 = load ptr, ptr %12, align 8
  %39 = load ptr, ptr %14, align 8
  %40 = load i8, ptr %16, align 1
  %41 = zext i8 %40 to i32
  %42 = load i8, ptr %17, align 1
  %43 = zext i8 %42 to i32
  %44 = call ptr (ptr, ptr, ptr, ptr, ...) @expert_add_info_format(ptr noundef %38, ptr noundef %39, ptr noundef @ei_pn_io_block_version, ptr noundef @.str.1317, i32 noundef %41, i32 noundef %43)
  %45 = load i32, ptr %11, align 4
  store i32 %45, ptr %9, align 4
  br label %143

46:                                               ; preds = %33, %29
  %47 = load ptr, ptr %10, align 8
  %48 = load i32, ptr %11, align 4
  %49 = load ptr, ptr %12, align 8
  %50 = load ptr, ptr %13, align 8
  %51 = load ptr, ptr %15, align 8
  %52 = load i32, ptr @hf_pn_io_tsn_expected_neighbor_block_number_of_entries, align 4
  %53 = call i32 @dissect_dcerpc_uint16(ptr noundef %47, i32 noundef %48, ptr noundef %49, ptr noundef %50, ptr noundef %51, i32 noundef %52, ptr noundef %22)
  store i32 %53, ptr %11, align 4
  br label %54

54:                                               ; preds = %140, %46
  %55 = load i16, ptr %22, align 2
  %56 = zext i16 %55 to i32
  %57 = icmp sgt i32 %56, 0
  br i1 %57, label %58, label %141

58:                                               ; preds = %54
  %59 = load i16, ptr %22, align 2
  %60 = add i16 %59, -1
  store i16 %60, ptr %22, align 2
  %61 = load ptr, ptr %10, align 8
  %62 = load i32, ptr %11, align 4
  %63 = load ptr, ptr %12, align 8
  %64 = load ptr, ptr %13, align 8
  %65 = load ptr, ptr %15, align 8
  %66 = load i32, ptr @hf_pn_io_slot_nr, align 4
  %67 = call i32 @dissect_dcerpc_uint16(ptr noundef %61, i32 noundef %62, ptr noundef %63, ptr noundef %64, ptr noundef %65, i32 noundef %66, ptr noundef %23)
  store i32 %67, ptr %11, align 4
  %68 = load ptr, ptr %10, align 8
  %69 = load i32, ptr %11, align 4
  %70 = load ptr, ptr %12, align 8
  %71 = load ptr, ptr %13, align 8
  %72 = load ptr, ptr %15, align 8
  %73 = load i32, ptr @hf_pn_io_subslot_nr, align 4
  %74 = call i32 @dissect_dcerpc_uint16(ptr noundef %68, i32 noundef %69, ptr noundef %70, ptr noundef %71, ptr noundef %72, i32 noundef %73, ptr noundef %24)
  store i32 %74, ptr %11, align 4
  %75 = load ptr, ptr %10, align 8
  %76 = load i32, ptr %11, align 4
  %77 = load ptr, ptr %12, align 8
  %78 = load ptr, ptr %13, align 8
  %79 = call i32 @dissect_pn_padding(ptr noundef %75, i32 noundef %76, ptr noundef %77, ptr noundef %78, i32 noundef 3)
  store i32 %79, ptr %11, align 4
  %80 = load ptr, ptr %10, align 8
  %81 = load i32, ptr %11, align 4
  %82 = load ptr, ptr %12, align 8
  %83 = load ptr, ptr %13, align 8
  %84 = load ptr, ptr %15, align 8
  %85 = load i32, ptr @hf_pn_io_number_of_peers, align 4
  %86 = call i32 @dissect_dcerpc_uint8(ptr noundef %80, i32 noundef %81, ptr noundef %82, ptr noundef %83, ptr noundef %84, i32 noundef %85, ptr noundef %18)
  store i32 %86, ptr %11, align 4
  %87 = load i8, ptr %18, align 1
  store i8 %87, ptr %19, align 1
  br label %88

88:                                               ; preds = %92, %58
  %89 = load i8, ptr %19, align 1
  %90 = add i8 %89, -1
  store i8 %90, ptr %19, align 1
  %91 = icmp ne i8 %89, 0
  br i1 %91, label %92, label %140

92:                                               ; preds = %88
  %93 = load ptr, ptr %10, align 8
  %94 = load i32, ptr %11, align 4
  %95 = load ptr, ptr %12, align 8
  %96 = load ptr, ptr %13, align 8
  %97 = load ptr, ptr %15, align 8
  %98 = load i32, ptr @hf_pn_io_length_peer_port_name, align 4
  %99 = call i32 @dissect_dcerpc_uint8(ptr noundef %93, i32 noundef %94, ptr noundef %95, ptr noundef %96, ptr noundef %97, i32 noundef %98, ptr noundef %20)
  store i32 %99, ptr %11, align 4
  %100 = load ptr, ptr %13, align 8
  %101 = load i32, ptr @hf_pn_io_peer_port_name, align 4
  %102 = load ptr, ptr %10, align 8
  %103 = load i32, ptr %11, align 4
  %104 = load i8, ptr %20, align 1
  %105 = zext i8 %104 to i32
  %106 = call ptr @proto_tree_add_item(ptr noundef %100, i32 noundef %101, ptr noundef %102, i32 noundef %103, i32 noundef %105, i32 noundef 0)
  %107 = load i8, ptr %20, align 1
  %108 = zext i8 %107 to i32
  %109 = load i32, ptr %11, align 4
  %110 = add i32 %109, %108
  store i32 %110, ptr %11, align 4
  %111 = load ptr, ptr %10, align 8
  %112 = load i32, ptr %11, align 4
  %113 = load ptr, ptr %12, align 8
  %114 = load ptr, ptr %13, align 8
  %115 = load ptr, ptr %15, align 8
  %116 = load i32, ptr @hf_pn_io_length_peer_station_name, align 4
  %117 = call i32 @dissect_dcerpc_uint8(ptr noundef %111, i32 noundef %112, ptr noundef %113, ptr noundef %114, ptr noundef %115, i32 noundef %116, ptr noundef %21)
  store i32 %117, ptr %11, align 4
  %118 = load ptr, ptr %13, align 8
  %119 = load i32, ptr @hf_pn_io_peer_station_name, align 4
  %120 = load ptr, ptr %10, align 8
  %121 = load i32, ptr %11, align 4
  %122 = load i8, ptr %21, align 1
  %123 = zext i8 %122 to i32
  %124 = call ptr @proto_tree_add_item(ptr noundef %118, i32 noundef %119, ptr noundef %120, i32 noundef %121, i32 noundef %123, i32 noundef 0)
  %125 = load i8, ptr %21, align 1
  %126 = zext i8 %125 to i32
  %127 = load i32, ptr %11, align 4
  %128 = add i32 %127, %126
  store i32 %128, ptr %11, align 4
  %129 = load ptr, ptr %10, align 8
  %130 = load i32, ptr %11, align 4
  %131 = load ptr, ptr %12, align 8
  %132 = load ptr, ptr %13, align 8
  %133 = call i32 @dissect_pn_align4(ptr noundef %129, i32 noundef %130, ptr noundef %131, ptr noundef %132)
  store i32 %133, ptr %11, align 4
  %134 = load ptr, ptr %10, align 8
  %135 = load i32, ptr %11, align 4
  %136 = load ptr, ptr %12, align 8
  %137 = load ptr, ptr %13, align 8
  %138 = load ptr, ptr %15, align 8
  %139 = call i32 @dissect_Line_Delay(ptr noundef %134, i32 noundef %135, ptr noundef %136, ptr noundef %137, ptr noundef %138, ptr noundef %25)
  store i32 %139, ptr %11, align 4
  br label %88, !llvm.loop !73

140:                                              ; preds = %88
  br label %54, !llvm.loop !74

141:                                              ; preds = %54
  %142 = load i32, ptr %11, align 4
  store i32 %142, ptr %9, align 4
  br label %143

143:                                              ; preds = %141, %37
  %144 = load i32, ptr %9, align 4
  ret i32 %144
}