; Function Attrs: nounwind uwtable
define internal fastcc void @dissect_TSNExpectedNeighbor_block(ptr noundef %0, i32 noundef %1, ptr noundef %2, ptr noundef %3, ptr noundef %4, ptr noundef %5, i8 noundef zeroext %6, i8 noundef zeroext %7) unnamed_addr #0 {
  %9 = alloca i32, align 4
  %10 = alloca i8, align 1
  %11 = alloca i8, align 1
  %12 = alloca i8, align 1
  %13 = alloca i16, align 2
  %14 = alloca i16, align 2
  %15 = alloca i16, align 2
  %16 = alloca i32, align 4
  %.not = icmp ne i8 %6, 1
  %or.cond = icmp ugt i8 %7, 1
  %or.cond67 = or i1 %.not, %or.cond
  br i1 %or.cond67, label %17, label %21

17:                                               ; preds = %8
  %18 = zext i8 %6 to i32
  %19 = zext i8 %7 to i32
  %20 = tail call ptr (ptr, ptr, ptr, ptr, ...) @expert_add_info_format(ptr noundef %2, ptr noundef %4, ptr noundef nonnull @ei_pn_io_block_version, ptr noundef nonnull @.str.1317, i32 noundef %18, i32 noundef %19) #11
  br label %.loopexit68

21:                                               ; preds = %8
  %22 = load i32, ptr @hf_pn_io_tsn_expected_neighbor_block_number_of_entries, align 4
  %23 = call i32 @dissect_dcerpc_uint16(ptr noundef %0, i32 noundef %1, ptr noundef %2, ptr noundef %3, ptr noundef %5, i32 noundef %22, ptr noundef nonnull %13) #11
  %24 = load i16, ptr %13, align 2
  %.not6572 = icmp eq i16 %24, 0
  br i1 %.not6572, label %.loopexit68, label %.lr.ph74

.loopexit:                                        ; preds = %.lr.ph, %.lr.ph74
  %.1.lcssa = phi i32 [ %34, %.lr.ph74 ], [ %64, %.lr.ph ]
  %25 = load i16, ptr %13, align 2
  %.not65 = icmp eq i16 %25, 0
  br i1 %.not65, label %.loopexit68, label %.lr.ph74, !llvm.loop !81

.lr.ph74:                                         ; preds = %21, %.loopexit
  %26 = phi i16 [ %25, %.loopexit ], [ %24, %21 ]
  %.06473 = phi i32 [ %.1.lcssa, %.loopexit ], [ %23, %21 ]
  %27 = add i16 %26, -1
  store i16 %27, ptr %13, align 2
  %28 = load i32, ptr @hf_pn_io_slot_nr, align 4
  %29 = call i32 @dissect_dcerpc_uint16(ptr noundef %0, i32 noundef %.06473, ptr noundef %2, ptr noundef %3, ptr noundef %5, i32 noundef %28, ptr noundef nonnull %14) #11
  %30 = load i32, ptr @hf_pn_io_subslot_nr, align 4
  %31 = call i32 @dissect_dcerpc_uint16(ptr noundef %0, i32 noundef %29, ptr noundef %2, ptr noundef %3, ptr noundef %5, i32 noundef %30, ptr noundef nonnull %15) #11
  %32 = call i32 @dissect_pn_padding(ptr noundef %0, i32 noundef %31, ptr noundef %2, ptr noundef %3, i32 noundef 3) #11
  %33 = load i32, ptr @hf_pn_io_number_of_peers, align 4
  %34 = call i32 @dissect_dcerpc_uint8(ptr noundef %0, i32 noundef %32, ptr noundef %2, ptr noundef %3, ptr noundef %5, i32 noundef %33, ptr noundef nonnull %10) #11
  %35 = load i8, ptr %10, align 1
  %.not6669 = icmp eq i8 %35, 0
  br i1 %.not6669, label %.loopexit, label %.lr.ph

.lr.ph:                                           ; preds = %.lr.ph74, %.lr.ph
  %.071 = phi i8 [ %36, %.lr.ph ], [ %35, %.lr.ph74 ]
  %.170 = phi i32 [ %64, %.lr.ph ], [ %34, %.lr.ph74 ]
  %36 = add i8 %.071, -1
  %37 = load i32, ptr @hf_pn_io_length_peer_port_name, align 4
  %38 = call i32 @dissect_dcerpc_uint8(ptr noundef %0, i32 noundef %.170, ptr noundef %2, ptr noundef %3, ptr noundef %5, i32 noundef %37, ptr noundef nonnull %11) #11
  %39 = load i32, ptr @hf_pn_io_peer_port_name, align 4
  %40 = load i8, ptr %11, align 1
  %41 = zext i8 %40 to i32
  %42 = call ptr @proto_tree_add_item(ptr noundef %3, i32 noundef %39, ptr noundef %0, i32 noundef %38, i32 noundef %41, i32 noundef 0) #11
  %43 = load i8, ptr %11, align 1
  %44 = zext i8 %43 to i32
  %45 = add i32 %38, %44
  %46 = load i32, ptr @hf_pn_io_length_peer_station_name, align 4
  %47 = call i32 @dissect_dcerpc_uint8(ptr noundef %0, i32 noundef %45, ptr noundef %2, ptr noundef %3, ptr noundef %5, i32 noundef %46, ptr noundef nonnull %12) #11
  %48 = load i32, ptr @hf_pn_io_peer_station_name, align 4
  %49 = load i8, ptr %12, align 1
  %50 = zext i8 %49 to i32
  %51 = call ptr @proto_tree_add_item(ptr noundef %3, i32 noundef %48, ptr noundef %0, i32 noundef %47, i32 noundef %50, i32 noundef 0) #11
  %52 = load i8, ptr %12, align 1
  %53 = zext i8 %52 to i32
  %54 = add i32 %47, %53
  %55 = call i32 @dissect_pn_align4(ptr noundef %0, i32 noundef %54, ptr noundef %2, ptr noundef %3) #11
  call void @llvm.lifetime.start.p0(i64 4, ptr nonnull %9)
  %56 = load i32, ptr @hf_pn_io_line_delay, align 4
  %57 = call ptr @proto_tree_add_item(ptr noundef %3, i32 noundef %56, ptr noundef %0, i32 noundef %55, i32 noundef 4, i32 noundef 0) #11
  %58 = load i32, ptr @ett_pn_io_line_delay, align 4
  %59 = call ptr @proto_item_add_subtree(ptr noundef %57, i32 noundef %58) #11
  %60 = load i32, ptr @hf_pn_io_line_delay_format_indicator, align 4
  %61 = call i32 @dissect_dcerpc_uint32(ptr noundef %0, i32 noundef %55, ptr noundef %2, ptr noundef %59, ptr noundef %5, i32 noundef %60, ptr noundef nonnull %9) #11
  %62 = load i32, ptr %9, align 4
  %hf_pn_io_line_delay_value.val.i = load i32, ptr @hf_pn_io_line_delay_value, align 4
  %hf_pn_io_cable_delay_value.val.i = load i32, ptr @hf_pn_io_cable_delay_value, align 4
  %.not22.i = icmp slt i32 %62, 0
  %63 = select i1 %.not22.i, i32 %hf_pn_io_cable_delay_value.val.i, i32 %hf_pn_io_line_delay_value.val.i
  %64 = call i32 @dissect_dcerpc_uint32(ptr noundef %0, i32 noundef %55, ptr noundef %2, ptr noundef %59, ptr noundef %5, i32 noundef %63, ptr noundef nonnull %16) #11
  call void @llvm.lifetime.end.p0(i64 4, ptr nonnull %9)
  %.not66 = icmp eq i8 %36, 0
  br i1 %.not66, label %.loopexit, label %.lr.ph, !llvm.loop !82

.loopexit68:                                      ; preds = %.loopexit, %21, %17
  ret void
}